target datalayout = "e-m:e-p270:32:32-p271:32:32-p272:64:64-i64:64-i128:128-f80:128-n8:16:32:64-S128"
target triple = "x86_64-pc-linux-gnu"

%"class.gmx::(anonymous namespace)::ElectricField" = type { %"class.gmx::IMDModule", %"class.gmx::IMdpOptionProvider", %"class.gmx::IMDOutputProvider", %"class.gmx::IForceProvider", [3 x %"class.gmx::(anonymous namespace)::ElectricFieldDimension"], ptr }
%"class.gmx::IMDModule" = type { ptr }
%"class.gmx::IMdpOptionProvider" = type { ptr }
%"class.gmx::IMDOutputProvider" = type { ptr }
%"class.gmx::IForceProvider" = type { ptr }
%"class.gmx::(anonymous namespace)::ElectricFieldDimension" = type { float, float, float, float }

; Function Attrs: mustprogress uwtable
define internal void @_ZN3gmx12_GLOBAL__N_113ElectricField12finishOutputEv(ptr noundef nonnull align 8 dereferenceable(88) %0) unnamed_addr #0 align 2 {
  %2 = alloca ptr, align 8
  store ptr %0, ptr %2, align 8
  %3 = load ptr, ptr %2, align 8
  %4 = getelementptr inbounds %"class.gmx::(anonymous namespace)::ElectricField", ptr %3, i32 0, i32 5
  %5 = load ptr, ptr %4, align 8
  %6 = icmp ne ptr %5, null
  br i1 %6, label %7, label %12

7:                                                ; preds = %1
  %8 = getelementptr inbounds %"class.gmx::(anonymous namespace)::ElectricField", ptr %3, i32 0, i32 5
  %9 = load ptr, ptr %8, align 8
  %10 = call noundef i32 @_Z14gmx_fio_fcloseP8_IO_FILE(ptr noundef %9)
  %11 = getelementptr inbounds %"class.gmx::(anonymous namespace)::ElectricField", ptr %3, i32 0, i32 5
  store ptr null, ptr %11, align 8
  br label %12

12:                                               ; preds = %7, %1
  ret void
}